target datalayout = "e-m:e-p270:32:32-p271:32:32-p272:64:64-i64:64-i128:128-f80:128-n8:16:32:64-S128"
target triple = "x86_64-pc-linux-gnu"

%struct._Node = type { %union.anon.2 }
%union.anon.2 = type { %struct.BagNode }
%struct.BagNode = type { i32, i32, ptr, ptr, i32, %union.anon.4, i32, i32, i32, i32, i32 }
%union.anon.4 = type { %struct.anon.7 }
%struct.anon.7 = type { ptr, ptr }
%struct.anon.3 = type { i32, i32, ptr, ptr }
%struct.ConsAltNode = type { i32, i32, ptr, ptr, ptr }

; Function Attrs: nounwind uwtable
define dso_local void @onig_node_free(ptr noundef %0) #0 {
  %2 = alloca ptr, align 8
  store ptr %0, ptr %2, align 8, !tbaa !111
  %3 = load ptr, ptr %2, align 8, !tbaa !111
  %4 = icmp eq ptr %3, null
  br i1 %4, label %5, label %6

5:                                                ; preds = %1
  br label %9

6:                                                ; preds = %1
  %7 = load ptr, ptr %2, align 8, !tbaa !111
  call void @node_free_body(ptr noundef %7)
  %8 = load ptr, ptr %2, align 8, !tbaa !111
  call void @free(ptr noundef %8) #8
  br label %9

9:                                                ; preds = %6, %5
  ret void
}

; Function Attrs: nounwind uwtable
define internal ptr @node_new() #0 {
  %1 = alloca ptr, align 8
  %2 = alloca ptr, align 8
  %3 = alloca i32, align 4
  call void @llvm.lifetime.start.p0(i64 8, ptr %2) #8
  %4 = call noalias ptr @malloc(i64 noundef 72) #9
  store ptr %4, ptr %2, align 8, !tbaa !111
  %5 = load ptr, ptr %2, align 8, !tbaa !111
  %6 = icmp eq ptr %5, null
  br i1 %6, label %7, label %8

7:                                                ; preds = %0
  store ptr null, ptr %1, align 8
  store i32 1, ptr %3, align 4
  br label %11

8:                                                ; preds = %0
  %9 = load ptr, ptr %2, align 8, !tbaa !111
  call void @llvm.memset.p0.i64(ptr align 8 %9, i8 0, i64 72, i1 false)
  %10 = load ptr, ptr %2, align 8, !tbaa !111
  store ptr %10, ptr %1, align 8
  store i32 1, ptr %3, align 4
  br label %11

11:                                               ; preds = %8, %7
  call void @llvm.lifetime.end.p0(i64 8, ptr %2) #8
  %12 = load ptr, ptr %1, align 8
  ret ptr %12
}

; Function Attrs: nounwind uwtable
define internal ptr @make_list_or_alt(i32 noundef %0, i32 noundef %1, ptr noundef %2) #0 {
  %4 = alloca ptr, align 8
  %5 = alloca i32, align 4
  %6 = alloca i32, align 4
  %7 = alloca ptr, align 8
  %8 = alloca ptr, align 8
  %9 = alloca i32, align 4
  %10 = alloca ptr, align 8
  store i32 %0, ptr %5, align 4, !tbaa !10
  store i32 %1, ptr %6, align 4, !tbaa !10
  store ptr %2, ptr %7, align 8, !tbaa !119
  call void @llvm.lifetime.start.p0(i64 8, ptr %8) #8
  %11 = load i32, ptr %6, align 4, !tbaa !10
  %12 = icmp sle i32 %11, 0
  br i1 %12, label %13, label %14

13:                                               ; preds = %3
  store ptr null, ptr %4, align 8
  store i32 1, ptr %9, align 4
  br label %72

14:                                               ; preds = %3
  %15 = load i32, ptr %6, align 4, !tbaa !10
  %16 = icmp eq i32 %15, 1
  br i1 %16, label %17, label %36

17:                                               ; preds = %14
  %18 = call ptr @node_new()
  store ptr %18, ptr %8, align 8, !tbaa !111
  %19 = load ptr, ptr %8, align 8, !tbaa !111
  %20 = icmp eq ptr %19, null
  br i1 %20, label %21, label %22

21:                                               ; preds = %17
  store ptr null, ptr %4, align 8
  store i32 1, ptr %9, align 4
  br label %72

22:                                               ; preds = %17
  %23 = load i32, ptr %5, align 4, !tbaa !10
  %24 = load ptr, ptr %8, align 8, !tbaa !111
  %25 = getelementptr inbounds nuw %struct._Node, ptr %24, i32 0, i32 0
  %26 = getelementptr inbounds nuw %struct.anon.3, ptr %25, i32 0, i32 0
  store i32 %23, ptr %26, align 8, !tbaa !12
  %27 = load ptr, ptr %7, align 8, !tbaa !119
  %28 = getelementptr inbounds ptr, ptr %27, i64 0
  %29 = load ptr, ptr %28, align 8, !tbaa !111
  %30 = load ptr, ptr %8, align 8, !tbaa !111
  %31 = getelementptr inbounds nuw %struct._Node, ptr %30, i32 0, i32 0
  %32 = getelementptr inbounds nuw %struct.ConsAltNode, ptr %31, i32 0, i32 3
  store ptr %29, ptr %32, align 8, !tbaa !12
  %33 = load ptr, ptr %8, align 8, !tbaa !111
  %34 = getelementptr inbounds nuw %struct._Node, ptr %33, i32 0, i32 0
  %35 = getelementptr inbounds nuw %struct.ConsAltNode, ptr %34, i32 0, i32 4
  store ptr null, ptr %35, align 8, !tbaa !12
  br label %70

36:                                               ; preds = %14
  call void @llvm.lifetime.start.p0(i64 8, ptr %10) #8
  %37 = call ptr @node_new()
  store ptr %37, ptr %8, align 8, !tbaa !111
  %38 = load ptr, ptr %8, align 8, !tbaa !111
  %39 = icmp eq ptr %38, null
  br i1 %39, label %40, label %41

40:                                               ; preds = %36
  store ptr null, ptr %4, align 8
  store i32 1, ptr %9, align 4
  br label %67

41:                                               ; preds = %36
  %42 = load i32, ptr %5, align 4, !tbaa !10
  %43 = load i32, ptr %6, align 4, !tbaa !10
  %44 = sub nsw i32 %43, 1
  %45 = load ptr, ptr %7, align 8, !tbaa !119
  %46 = getelementptr inbounds ptr, ptr %45, i64 1
  %47 = call ptr @make_list_or_alt(i32 noundef %42, i32 noundef %44, ptr noundef %46)
  store ptr %47, ptr %10, align 8, !tbaa !111
  %48 = load ptr, ptr %10, align 8, !tbaa !111
  %49 = icmp eq ptr %48, null
  br i1 %49, label %50, label %52

50:                                               ; preds = %41
  %51 = load ptr, ptr %8, align 8, !tbaa !111
  call void @onig_node_free(ptr noundef %51)
  store ptr null, ptr %4, align 8
  store i32 1, ptr %9, align 4
  br label %67

52:                                               ; preds = %41
  %53 = load i32, ptr %5, align 4, !tbaa !10
  %54 = load ptr, ptr %8, align 8, !tbaa !111
  %55 = getelementptr inbounds nuw %struct._Node, ptr %54, i32 0, i32 0
  %56 = getelementptr inbounds nuw %struct.anon.3, ptr %55, i32 0, i32 0
  store i32 %53, ptr %56, align 8, !tbaa !12
  %57 = load ptr, ptr %7, align 8, !tbaa !119
  %58 = getelementptr inbounds ptr, ptr %57, i64 0
  %59 = load ptr, ptr %58, align 8, !tbaa !111
  %60 = load ptr, ptr %8, align 8, !tbaa !111
  %61 = getelementptr inbounds nuw %struct._Node, ptr %60, i32 0, i32 0
  %62 = getelementptr inbounds nuw %struct.ConsAltNode, ptr %61, i32 0, i32 3
  store ptr %59, ptr %62, align 8, !tbaa !12
  %63 = load ptr, ptr %10, align 8, !tbaa !111
  %64 = load ptr, ptr %8, align 8, !tbaa !111
  %65 = getelementptr inbounds nuw %struct._Node, ptr %64, i32 0, i32 0
  %66 = getelementptr inbounds nuw %struct.ConsAltNode, ptr %65, i32 0, i32 4
  store ptr %63, ptr %66, align 8, !tbaa !12
  store i32 0, ptr %9, align 4
  br label %67

67:                                               ; preds = %52, %50, %40
  call void @llvm.lifetime.end.p0(i64 8, ptr %10) #8
  %68 = load i32, ptr %9, align 4
  switch i32 %68, label %72 [
    i32 0, label %69
  ]

69:                                               ; preds = %67
  br label %70

70:                                               ; preds = %69, %22
  %71 = load ptr, ptr %8, align 8, !tbaa !111
  store ptr %71, ptr %4, align 8
  store i32 1, ptr %9, align 4
  br label %72

72:                                               ; preds = %70, %67, %21, %13
  call void @llvm.lifetime.end.p0(i64 8, ptr %8) #8
  %73 = load ptr, ptr %4, align 8
  ret ptr %73
}